; Function Attrs: mustprogress uwtable
define hidden void @_ZN3sat10aig_finderclER10ptr_vectorINS_6clauseEE(ptr noundef nonnull align 8 dereferenceable(160) %0, ptr noundef nonnull readonly align 8 captures(none) dereferenceable(8) %1) local_unnamed_addr #3 align 2 {
  %3 = getelementptr inbounds nuw i8, ptr %0, i64 8
  %4 = load ptr, ptr %0, align 8, !tbaa !8
  tail call void @_ZN3sat3big4initERNS_6solverEb(ptr noundef nonnull align 8 dereferenceable(80) %3, ptr noundef nonnull align 8 dereferenceable(4264) %4, i1 noundef zeroext true)
  %5 = getelementptr inbounds nuw i8, ptr %0, i64 112
  %6 = load ptr, ptr %5, align 8, !tbaa !28
  %.not.i.i.not.i = icmp eq ptr %6, null
  br i1 %.not.i.i.not.i, label %_ZN3sat10aig_finder9find_aigsER10ptr_vectorINS_6clauseEE.exit, label %7

7:                                                ; preds = %2
  %8 = load ptr, ptr %1, align 8, !tbaa !29
  %9 = icmp eq ptr %8, null
  br i1 %9, label %_ZN3sat10aig_finder9find_aigsER10ptr_vectorINS_6clauseEE.exit, label %_ZN6vectorIPN3sat6clauseELb0EjE3endEv.exit.i

_ZN6vectorIPN3sat6clauseELb0EjE3endEv.exit.i:     ; preds = %7
  %10 = getelementptr inbounds i8, ptr %8, i64 -4
  %11 = load i32, ptr %10, align 4, !tbaa !33
  %12 = zext i32 %11 to i64
  %13 = getelementptr inbounds nuw ptr, ptr %8, i64 %12
  %.not14.i = icmp eq i32 %11, 0
  br i1 %.not14.i, label %._crit_edge.thread21.i, label %.lr.ph.i

._crit_edge.i:                                    ; preds = %23
  %.pre.i = load ptr, ptr %1, align 8, !tbaa !29
  %.not.i.i = icmp eq ptr %.pre.i, null
  br i1 %.not.i.i, label %_ZN3sat10aig_finder9find_aigsER10ptr_vectorINS_6clauseEE.exit, label %._crit_edge.thread21.i

._crit_edge.thread21.i:                           ; preds = %._crit_edge.i, %_ZN6vectorIPN3sat6clauseELb0EjE3endEv.exit.i
  %.0.lcssa24.i = phi i32 [ %.1.i, %._crit_edge.i ], [ 0, %_ZN6vectorIPN3sat6clauseELb0EjE3endEv.exit.i ]
  %14 = phi ptr [ %.pre.i, %._crit_edge.i ], [ %8, %_ZN6vectorIPN3sat6clauseELb0EjE3endEv.exit.i ]
  %15 = getelementptr inbounds i8, ptr %14, i64 -4
  store i32 %.0.lcssa24.i, ptr %15, align 4, !tbaa !33
  br label %_ZN3sat10aig_finder9find_aigsER10ptr_vectorINS_6clauseEE.exit

.lr.ph.i:                                         ; preds = %_ZN6vectorIPN3sat6clauseELb0EjE3endEv.exit.i, %23
  %.016.i = phi i32 [ %.1.i, %23 ], [ 0, %_ZN6vectorIPN3sat6clauseELb0EjE3endEv.exit.i ]
  %.01315.i = phi ptr [ %24, %23 ], [ %8, %_ZN6vectorIPN3sat6clauseELb0EjE3endEv.exit.i ]
  %16 = load ptr, ptr %.01315.i, align 8, !tbaa !34
  %17 = tail call noundef zeroext i1 @_ZN3sat10aig_finder8find_aigERNS_6clauseE(ptr noundef nonnull align 8 dereferenceable(160) %0, ptr noundef nonnull align 4 dereferenceable(20) %16)
  br i1 %17, label %23, label %18

18:                                               ; preds = %.lr.ph.i
  %19 = add i32 %.016.i, 1
  %20 = load ptr, ptr %1, align 8, !tbaa !29
  %21 = zext i32 %.016.i to i64
  %22 = getelementptr inbounds nuw ptr, ptr %20, i64 %21
  store ptr %16, ptr %22, align 8, !tbaa !34
  br label %23

23:                                               ; preds = %18, %.lr.ph.i
  %.1.i = phi i32 [ %.016.i, %.lr.ph.i ], [ %19, %18 ]
  %24 = getelementptr inbounds nuw i8, ptr %.01315.i, i64 8
  %.not.i = icmp eq ptr %24, %13
  br i1 %.not.i, label %._crit_edge.i, label %.lr.ph.i

_ZN3sat10aig_finder9find_aigsER10ptr_vectorINS_6clauseEE.exit: ; preds = %2, %7, %._crit_edge.i, %._crit_edge.thread21.i
  tail call void @_ZN3sat10aig_finder8find_ifsER10ptr_vectorINS_6clauseEE(ptr noundef nonnull align 8 dereferenceable(160) %0, ptr noundef nonnull align 8 dereferenceable(8) %1)
  ret void
}